; Function Attrs: mustprogress uwtable
define void @_Z19gmx_calc_comg_blockPK10gmx_mtop_tPA3_fPK7t_blockPKibS3_(ptr noundef %0, ptr noundef readonly captures(none) %1, ptr noundef readonly captures(none) %2, ptr noundef readonly captures(none) %3, i1 noundef zeroext %4, ptr noundef writeonly captures(none) %5) local_unnamed_addr #2 {
  br i1 %4, label %7, label %8

7:                                                ; preds = %6
  tail call void @_Z18gmx_calc_com_blockPK10gmx_mtop_tPA3_fPK7t_blockPKiS3_(ptr noundef %0, ptr noundef %1, ptr noundef %2, ptr noundef %3, ptr noundef %5)
  br label %_Z18gmx_calc_cog_blockPK10gmx_mtop_tPA3_fPK7t_blockPKiS3_.exit

8:                                                ; preds = %6
  %9 = load i32, ptr %2, align 8, !tbaa !68
  %10 = icmp sgt i32 %9, 0
  br i1 %10, label %.lr.ph34.i, label %_Z18gmx_calc_cog_blockPK10gmx_mtop_tPA3_fPK7t_blockPKiS3_.exit

.lr.ph34.i:                                       ; preds = %8
  %11 = getelementptr inbounds nuw i8, ptr %2, i64 8
  %12 = load ptr, ptr %11, align 8, !tbaa !70
  %wide.trip.count42.i = zext nneg i32 %9 to i64
  %.pre.i = load i32, ptr %12, align 4, !tbaa !8
  br label %13

13:                                               ; preds = %._crit_edge.i, %.lr.ph34.i
  %14 = phi i32 [ %.pre.i, %.lr.ph34.i ], [ %16, %._crit_edge.i ]
  %indvars.iv39.i = phi i64 [ 0, %.lr.ph34.i ], [ %indvars.iv.next40.i, %._crit_edge.i ]
  %indvars.iv.next40.i = add nuw nsw i64 %indvars.iv39.i, 1
  %15 = getelementptr inbounds nuw i32, ptr %12, i64 %indvars.iv.next40.i
  %16 = load i32, ptr %15, align 4, !tbaa !8
  %17 = icmp slt i32 %14, %16
  br i1 %17, label %.lr.ph.preheader.i, label %._crit_edge.i

.lr.ph.preheader.i:                               ; preds = %13
  %18 = sext i32 %14 to i64
  %wide.trip.count.i = sext i32 %16 to i64
  br label %.lr.ph.i

.lr.ph.i:                                         ; preds = %.lr.ph.i, %.lr.ph.preheader.i
  %indvars.iv.i = phi i64 [ %18, %.lr.ph.preheader.i ], [ %indvars.iv.next.i, %.lr.ph.i ]
  %.sroa.0.026.i = phi float [ 0.000000e+00, %.lr.ph.preheader.i ], [ %24, %.lr.ph.i ]
  %.sroa.6.025.i = phi float [ 0.000000e+00, %.lr.ph.preheader.i ], [ %27, %.lr.ph.i ]
  %.sroa.10.024.i = phi float [ 0.000000e+00, %.lr.ph.preheader.i ], [ %30, %.lr.ph.i ]
  %19 = getelementptr inbounds i32, ptr %3, i64 %indvars.iv.i
  %20 = load i32, ptr %19, align 4, !tbaa !8
  %21 = sext i32 %20 to i64
  %22 = getelementptr inbounds [3 x float], ptr %1, i64 %21
  %23 = load float, ptr %22, align 4, !tbaa !4
  %24 = fadd float %.sroa.0.026.i, %23
  %25 = getelementptr inbounds nuw i8, ptr %22, i64 4
  %26 = load float, ptr %25, align 4, !tbaa !4
  %27 = fadd float %.sroa.6.025.i, %26
  %28 = getelementptr inbounds nuw i8, ptr %22, i64 8
  %29 = load float, ptr %28, align 4, !tbaa !4
  %30 = fadd float %.sroa.10.024.i, %29
  %indvars.iv.next.i = add nsw i64 %indvars.iv.i, 1
  %exitcond.not.i = icmp eq i64 %indvars.iv.next.i, %wide.trip.count.i
  br i1 %exitcond.not.i, label %._crit_edge.i, label %.lr.ph.i, !llvm.loop !71

._crit_edge.i:                                    ; preds = %.lr.ph.i, %13
  %.sroa.10.0.lcssa.i = phi float [ 0.000000e+00, %13 ], [ %30, %.lr.ph.i ]
  %.sroa.6.0.lcssa.i = phi float [ 0.000000e+00, %13 ], [ %27, %.lr.ph.i ]
  %.sroa.0.0.lcssa.i = phi float [ 0.000000e+00, %13 ], [ %24, %.lr.ph.i ]
  %31 = sub nsw i32 %16, %14
  %32 = sitofp i32 %31 to double
  %33 = fdiv double 1.000000e+00, %32
  %34 = fptrunc double %33 to float
  %35 = getelementptr inbounds nuw [3 x float], ptr %5, i64 %indvars.iv39.i
  %36 = fmul float %.sroa.0.0.lcssa.i, %34
  store float %36, ptr %35, align 4, !tbaa !4
  %37 = fmul float %.sroa.6.0.lcssa.i, %34
  %38 = getelementptr inbounds nuw i8, ptr %35, i64 4
  store float %37, ptr %38, align 4, !tbaa !4
  %39 = fmul float %.sroa.10.0.lcssa.i, %34
  %40 = getelementptr inbounds nuw i8, ptr %35, i64 8
  store float %39, ptr %40, align 4, !tbaa !4
  %exitcond43.not.i = icmp eq i64 %indvars.iv.next40.i, %wide.trip.count42.i
  br i1 %exitcond43.not.i, label %_Z18gmx_calc_cog_blockPK10gmx_mtop_tPA3_fPK7t_blockPKiS3_.exit, label %13, !llvm.loop !72

_Z18gmx_calc_cog_blockPK10gmx_mtop_tPA3_fPK7t_blockPKiS3_.exit: ; preds = %._crit_edge.i, %8, %7
  ret void
}